; ModuleID = '55/706.c'
source_filename = "55/706.c"
target datalayout = "e-m:e-p270:32:32-p271:32:32-p272:64:64-i64:64-f80:128-n8:16:32:64-S128"
target triple = "x86_64-pc-linux-gnu"

@.str = private unnamed_addr constant [3 x i8] c"%d\00", align 1
@.str.1 = private unnamed_addr constant [3 x i8] c"%s\00", align 1
@.str.2 = private unnamed_addr constant [2 x i8] c"0\00", align 1
@.str.3 = private unnamed_addr constant [2 x i8] c"\0A\00", align 1

; Function Attrs: noinline nounwind uwtable
define dso_local i32 @calc(i8 signext %0) #0 {
  %2 = alloca i32, align 4
  %3 = alloca i8, align 1
  store i8 %0, i8* %3, align 1
  %4 = load i8, i8* %3, align 1
  %5 = sext i8 %4 to i32
  %6 = icmp sge i32 %5, 48
  br i1 %6, label %7, label %15

7:                                                ; preds = %1
  %8 = load i8, i8* %3, align 1
  %9 = sext i8 %8 to i32
  %10 = icmp sle i32 %9, 57
  br i1 %10, label %11, label %15

11:                                               ; preds = %7
  %12 = load i8, i8* %3, align 1
  %13 = sext i8 %12 to i32
  %14 = sub nsw i32 %13, 48
  store i32 %14, i32* %2, align 4
  br label %43

15:                                               ; preds = %7, %1
  %16 = load i8, i8* %3, align 1
  %17 = sext i8 %16 to i32
  %18 = icmp sge i32 %17, 97
  br i1 %18, label %19, label %28

19:                                               ; preds = %15
  %20 = load i8, i8* %3, align 1
  %21 = sext i8 %20 to i32
  %22 = icmp sle i32 %21, 122
  br i1 %22, label %23, label %28

23:                                               ; preds = %19
  %24 = load i8, i8* %3, align 1
  %25 = sext i8 %24 to i32
  %26 = sub nsw i32 %25, 97
  %27 = add nsw i32 %26, 10
  store i32 %27, i32* %2, align 4
  br label %43

28:                                               ; preds = %19, %15
  %29 = load i8, i8* %3, align 1
  %30 = sext i8 %29 to i32
  %31 = icmp sge i32 %30, 65
  br i1 %31, label %32, label %41

32:                                               ; preds = %28
  %33 = load i8, i8* %3, align 1
  %34 = sext i8 %33 to i32
  %35 = icmp sle i32 %34, 90
  br i1 %35, label %36, label %41

36:                                               ; preds = %32
  %37 = load i8, i8* %3, align 1
  %38 = sext i8 %37 to i32
  %39 = sub nsw i32 %38, 65
  %40 = add nsw i32 %39, 10
  store i32 %40, i32* %2, align 4
  br label %43

41:                                               ; preds = %32, %28
  br label %42

42:                                               ; preds = %41
  br label %43

43:                                               ; preds = %11, %23, %36, %42
  %44 = load i32, i32* %2, align 4
  ret i32 %44
}

; Function Attrs: noinline nounwind uwtable
define dso_local signext i8 @form(i32 %0) #0 {
  %2 = alloca i8, align 1
  %3 = alloca i32, align 4
  store i32 %0, i32* %3, align 4
  %4 = load i32, i32* %3, align 4
  %5 = icmp sge i32 %4, 0
  br i1 %5, label %6, label %13

6:                                                ; preds = %1
  %7 = load i32, i32* %3, align 4
  %8 = icmp sle i32 %7, 9
  br i1 %8, label %9, label %13

9:                                                ; preds = %6
  %10 = load i32, i32* %3, align 4
  %11 = add nsw i32 48, %10
  %12 = trunc i32 %11 to i8
  store i8 %12, i8* %2, align 1
  br label %18

13:                                               ; preds = %6, %1
  %14 = load i32, i32* %3, align 4
  %15 = add nsw i32 65, %14
  %16 = sub nsw i32 %15, 10
  %17 = trunc i32 %16 to i8
  store i8 %17, i8* %2, align 1
  br label %18

18:                                               ; preds = %13, %9
  %19 = load i8, i8* %2, align 1
  ret i8 %19
}

; Function Attrs: noinline nounwind uwtable
define dso_local i32 @main() #0 {
  %1 = alloca i32, align 4
  %2 = alloca i32, align 4
  %3 = alloca i32, align 4
  %4 = alloca i32, align 4
  %5 = alloca i32, align 4
  %6 = alloca i32, align 4
  %7 = alloca [200 x i8], align 16
  %8 = alloca i8*, align 8
  %9 = alloca i32, align 4
  %10 = alloca i32, align 4
  store i32 0, i32* %1, align 4
  %11 = call i32 (i8*, ...) @__isoc99_scanf(i8* getelementptr inbounds ([3 x i8], [3 x i8]* @.str, i64 0, i64 0), i32* %2)
  %12 = call i32 (i8*, ...) @__isoc99_scanf(i8* getelementptr inbounds ([3 x i8], [3 x i8]* @.str.1, i64 0, i64 0), [200 x i8]* %7)
  %13 = call i32 (i8*, ...) @__isoc99_scanf(i8* getelementptr inbounds ([3 x i8], [3 x i8]* @.str, i64 0, i64 0), i32* %3)
  %14 = getelementptr inbounds [200 x i8], [200 x i8]* %7, i64 0, i64 0
  %15 = call i64 @strlen(i8* %14) #3
  %16 = sub i64 %15, 1
  %17 = trunc i64 %16 to i32
  store i32 %17, i32* %5, align 4
  store i32 1, i32* %6, align 4
  store i32 0, i32* %4, align 4
  %18 = load i32, i32* %5, align 4
  store i32 %18, i32* %9, align 4
  br label %19

19:                                               ; preds = %35, %0
  %20 = load i32, i32* %9, align 4
  %21 = icmp sge i32 %20, 0
  br i1 %21, label %22, label %38

22:                                               ; preds = %19
  %23 = load i32, i32* %6, align 4
  %24 = load i32, i32* %9, align 4
  %25 = sext i32 %24 to i64
  %26 = getelementptr inbounds [200 x i8], [200 x i8]* %7, i64 0, i64 %25
  %27 = load i8, i8* %26, align 1
  %28 = call i32 @calc(i8 signext %27)
  %29 = mul nsw i32 %23, %28
  %30 = load i32, i32* %4, align 4
  %31 = add nsw i32 %30, %29
  store i32 %31, i32* %4, align 4
  %32 = load i32, i32* %2, align 4
  %33 = load i32, i32* %6, align 4
  %34 = mul nsw i32 %33, %32
  store i32 %34, i32* %6, align 4
  br label %35

35:                                               ; preds = %22
  %36 = load i32, i32* %9, align 4
  %37 = add nsw i32 %36, -1
  store i32 %37, i32* %9, align 4
  br label %19

38:                                               ; preds = %19
  %39 = load i32, i32* %4, align 4
  %40 = icmp eq i32 %39, 0
  br i1 %40, label %41, label %43

41:                                               ; preds = %38
  %42 = call i32 (i8*, ...) @printf(i8* getelementptr inbounds ([2 x i8], [2 x i8]* @.str.2, i64 0, i64 0))
  br label %43

43:                                               ; preds = %41, %38
  store i32 0, i32* %9, align 4
  br label %44

44:                                               ; preds = %58, %43
  %45 = load i32, i32* %4, align 4
  %46 = icmp sgt i32 %45, 0
  br i1 %46, label %47, label %61

47:                                               ; preds = %44
  %48 = load i32, i32* %4, align 4
  %49 = load i32, i32* %3, align 4
  %50 = srem i32 %48, %49
  %51 = call signext i8 @form(i32 %50)
  %52 = load i32, i32* %9, align 4
  %53 = sext i32 %52 to i64
  %54 = getelementptr inbounds [200 x i8], [200 x i8]* %7, i64 0, i64 %53
  store i8 %51, i8* %54, align 1
  %55 = load i32, i32* %3, align 4
  %56 = load i32, i32* %4, align 4
  %57 = sdiv i32 %56, %55
  store i32 %57, i32* %4, align 4
  br label %58

58:                                               ; preds = %47
  %59 = load i32, i32* %9, align 4
  %60 = add nsw i32 %59, 1
  store i32 %60, i32* %9, align 4
  br label %44

61:                                               ; preds = %44
  %62 = load i32, i32* %9, align 4
  %63 = add nsw i32 %62, -1
  store i32 %63, i32* %9, align 4
  store i32 %63, i32* %10, align 4
  br label %64

64:                                               ; preds = %74, %61
  %65 = load i32, i32* %10, align 4
  %66 = icmp sge i32 %65, 0
  br i1 %66, label %67, label %77

67:                                               ; preds = %64
  %68 = load i32, i32* %10, align 4
  %69 = sext i32 %68 to i64
  %70 = getelementptr inbounds [200 x i8], [200 x i8]* %7, i64 0, i64 %69
  %71 = load i8, i8* %70, align 1
  %72 = sext i8 %71 to i32
  %73 = call i32 @putchar(i32 %72)
  br label %74

74:                                               ; preds = %67
  %75 = load i32, i32* %10, align 4
  %76 = add nsw i32 %75, -1
  store i32 %76, i32* %10, align 4
  br label %64

77:                                               ; preds = %64
  %78 = call i32 (i8*, ...) @printf(i8* getelementptr inbounds ([2 x i8], [2 x i8]* @.str.3, i64 0, i64 0))
  %79 = load i32, i32* %1, align 4
  ret i32 %79
}

declare dso_local i32 @__isoc99_scanf(i8*, ...) #1

; Function Attrs: nounwind readonly
declare dso_local i64 @strlen(i8*) #2

declare dso_local i32 @printf(i8*, ...) #1

declare dso_local i32 @putchar(i32) #1


!llvm.module.flags = !{!0}
!llvm.ident = !{!1}

!0 = !{i32 1, !"wchar_size", i32 4}
!1 = !{!"clang version 10.0.0-4ubuntu1 "}
